target datalayout = "e-m:e-p270:32:32-p271:32:32-p272:64:64-i64:64-i128:128-f80:128-n8:16:32:64-S128"
target triple = "x86_64-unknown-linux-gnu"

%"struct.url::Component" = type { i32, i32 }
%"class.url::CanonOutputT" = type { ptr, ptr, i32, i32 }

; Function Attrs: mustprogress uwtable
define linkonce_odr dso_local void @_ZN3url22AppendUTF8EscapedValueEjPNS_12CanonOutputTIcEE(i32 noundef %char_value, ptr noundef %output) #0 comdat {
entry:
  %char_value.addr = alloca i32, align 4
  %output.addr = alloca ptr, align 8
  store i32 %char_value, ptr %char_value.addr, align 4
  store ptr %output, ptr %output.addr, align 8
  %0 = load i32, ptr %char_value.addr, align 4
  %1 = load ptr, ptr %output.addr, align 8
  call void @_ZN3url12DoAppendUTF8INS_12CanonOutputTIcEETnPFvhPT_EXadL_ZNS_17AppendEscapedCharIhcEEvS3_PNS1_IT0_EEEEEEvjS4_(i32 noundef %0, ptr noundef %1)
  ret void
}

; Function Attrs: mustprogress uwtable
define linkonce_odr dso_local noundef zeroext i1 @_ZN3url12CanonOutputTIcE4GrowEi(ptr noundef nonnull align 8 dereferenceable(24) %this, i32 noundef %min_additional) #0 comdat align 2 {
entry:
  %retval = alloca i1, align 1
  %this.addr = alloca ptr, align 8
  %min_additional.addr = alloca i32, align 4
  %new_len = alloca i32, align 4
  store ptr %this, ptr %this.addr, align 8
  store i32 %min_additional, ptr %min_additional.addr, align 4
  %this1 = load ptr, ptr %this.addr, align 8
  %buffer_len_ = getelementptr inbounds %"class.url::CanonOutputT", ptr %this1, i32 0, i32 2
  %0 = load i32, ptr %buffer_len_, align 8
  %cmp = icmp eq i32 %0, 0
  br i1 %cmp, label %cond.true, label %cond.false

cond.true:                                        ; preds = %entry
  br label %cond.end

cond.false:                                       ; preds = %entry
  %buffer_len_2 = getelementptr inbounds %"class.url::CanonOutputT", ptr %this1, i32 0, i32 2
  %1 = load i32, ptr %buffer_len_2, align 8
  br label %cond.end

cond.end:                                         ; preds = %cond.false, %cond.true
  %cond = phi i32 [ 16, %cond.true ], [ %1, %cond.false ]
  store i32 %cond, ptr %new_len, align 4
  br label %do.body

do.body:                                          ; preds = %do.cond, %cond.end
  %2 = load i32, ptr %new_len, align 4
  %cmp3 = icmp sge i32 %2, 1073741824
  br i1 %cmp3, label %if.then, label %if.end

if.then:                                          ; preds = %do.body
  store i1 false, ptr %retval, align 1
  br label %return

if.end:                                           ; preds = %do.body
  %3 = load i32, ptr %new_len, align 4
  %mul = mul nsw i32 %3, 2
  store i32 %mul, ptr %new_len, align 4
  br label %do.cond

do.cond:                                          ; preds = %if.end
  %4 = load i32, ptr %new_len, align 4
  %buffer_len_4 = getelementptr inbounds %"class.url::CanonOutputT", ptr %this1, i32 0, i32 2
  %5 = load i32, ptr %buffer_len_4, align 8
  %6 = load i32, ptr %min_additional.addr, align 4
  %add = add nsw i32 %5, %6
  %cmp5 = icmp slt i32 %4, %add
  br i1 %cmp5, label %do.body, label %do.end, !llvm.loop !7

do.end:                                           ; preds = %do.cond
  %7 = load i32, ptr %new_len, align 4
  %vtable = load ptr, ptr %this1, align 8
  %vfn = getelementptr inbounds ptr, ptr %vtable, i64 2
  %8 = load ptr, ptr %vfn, align 8
  call void %8(ptr noundef nonnull align 8 dereferenceable(24) %this1, i32 noundef %7)
  store i1 true, ptr %retval, align 1
  br label %return

return:                                           ; preds = %do.end, %if.then
  %9 = load i1, ptr %retval, align 1
  ret i1 %9
}

; Function Attrs: mustprogress nounwind uwtable
define linkonce_odr dso_local void @_ZN3url9Component5resetEv(ptr noundef nonnull align 4 dereferenceable(8) %this) #1 comdat align 2 {
entry:
  %this.addr = alloca ptr, align 8
  store ptr %this, ptr %this.addr, align 8
  %this1 = load ptr, ptr %this.addr, align 8
  %begin = getelementptr inbounds %"struct.url::Component", ptr %this1, i32 0, i32 0
  store i32 0, ptr %begin, align 4
  %len = getelementptr inbounds %"struct.url::Component", ptr %this1, i32 0, i32 1
  store i32 -1, ptr %len, align 4
  ret void
}

; Function Attrs: mustprogress uwtable
define linkonce_odr dso_local noundef zeroext i1 @_ZN3url21AppendUTF8EscapedCharEPKtPiiPNS_12CanonOutputTIcEE(ptr noundef %str, ptr noundef %begin, i32 noundef %length, ptr noundef %output) #0 comdat {
entry:
  %str.addr = alloca ptr, align 8
  %begin.addr = alloca ptr, align 8
  %length.addr = alloca i32, align 4
  %output.addr = alloca ptr, align 8
  %char_value = alloca i32, align 4
  %success = alloca i8, align 1
  store ptr %str, ptr %str.addr, align 8
  store ptr %begin, ptr %begin.addr, align 8
  store i32 %length, ptr %length.addr, align 4
  store ptr %output, ptr %output.addr, align 8
  %0 = load ptr, ptr %str.addr, align 8
  %1 = load ptr, ptr %begin.addr, align 8
  %2 = load i32, ptr %length.addr, align 4
  %call = call noundef zeroext i1 @_ZN3url11ReadUTFCharEPKtPiiPj(ptr noundef %0, ptr noundef %1, i32 noundef %2, ptr noundef %char_value)
  %frombool = zext i1 %call to i8
  store i8 %frombool, ptr %success, align 1
  %3 = load i32, ptr %char_value, align 4
  %4 = load ptr, ptr %output.addr, align 8
  call void @_ZN3url22AppendUTF8EscapedValueEjPNS_12CanonOutputTIcEE(i32 noundef %3, ptr noundef %4)
  %5 = load i8, ptr %success, align 1
  %tobool = trunc i8 %5 to i1
  ret i1 %tobool
}

; Function Attrs: mustprogress nounwind uwtable
define linkonce_odr dso_local noundef i32 @_ZNK3url9Component3endEv(ptr noundef nonnull align 4 dereferenceable(8) %this) #1 comdat align 2 {
entry:
  %this.addr = alloca ptr, align 8
  store ptr %this, ptr %this.addr, align 8
  %this1 = load ptr, ptr %this.addr, align 8
  %begin = getelementptr inbounds %"struct.url::Component", ptr %this1, i32 0, i32 0
  %0 = load i32, ptr %begin, align 4
  %len = getelementptr inbounds %"struct.url::Component", ptr %this1, i32 0, i32 1
  %1 = load i32, ptr %len, align 4
  %add = add nsw i32 %0, %1
  ret i32 %add
}

; Function Attrs: mustprogress nounwind uwtable
define linkonce_odr dso_local noundef i32 @_ZNK3url12CanonOutputTIcE6lengthEv(ptr noundef nonnull align 8 dereferenceable(24) %this) #1 comdat align 2 {
entry:
  %this.addr = alloca ptr, align 8
  store ptr %this, ptr %this.addr, align 8
  %this1 = load ptr, ptr %this.addr, align 8
  %cur_len_ = getelementptr inbounds %"class.url::CanonOutputT", ptr %this1, i32 0, i32 3
  %0 = load i32, ptr %cur_len_, align 4
  ret i32 %0
}

; Function Attrs: mustprogress uwtable
define linkonce_odr dso_local void @_ZN3url12CanonOutputTIcE9push_backEc(ptr noundef nonnull align 8 dereferenceable(24) %this, i8 noundef signext %ch) #0 comdat align 2 {
entry:
  %this.addr = alloca ptr, align 8
  %ch.addr = alloca i8, align 1
  store ptr %this, ptr %this.addr, align 8
  store i8 %ch, ptr %ch.addr, align 1
  %this1 = load ptr, ptr %this.addr, align 8
  %cur_len_ = getelementptr inbounds %"class.url::CanonOutputT", ptr %this1, i32 0, i32 3
  %0 = load i32, ptr %cur_len_, align 4
  %buffer_len_ = getelementptr inbounds %"class.url::CanonOutputT", ptr %this1, i32 0, i32 2
  %1 = load i32, ptr %buffer_len_, align 8
  %cmp = icmp slt i32 %0, %1
  br i1 %cmp, label %if.then, label %if.end

if.then:                                          ; preds = %entry
  %2 = load i8, ptr %ch.addr, align 1
  %buffer_ = getelementptr inbounds %"class.url::CanonOutputT", ptr %this1, i32 0, i32 1
  %3 = load ptr, ptr %buffer_, align 8
  %cur_len_2 = getelementptr inbounds %"class.url::CanonOutputT", ptr %this1, i32 0, i32 3
  %4 = load i32, ptr %cur_len_2, align 4
  %idxprom = sext i32 %4 to i64
  %arrayidx = getelementptr inbounds i8, ptr %3, i64 %idxprom
  store i8 %2, ptr %arrayidx, align 1
  %cur_len_3 = getelementptr inbounds %"class.url::CanonOutputT", ptr %this1, i32 0, i32 3
  %5 = load i32, ptr %cur_len_3, align 4
  %inc = add nsw i32 %5, 1
  store i32 %inc, ptr %cur_len_3, align 4
  br label %return

if.end:                                           ; preds = %entry
  %call = call noundef zeroext i1 @_ZN3url12CanonOutputTIcE4GrowEi(ptr noundef nonnull align 8 dereferenceable(24) %this1, i32 noundef 1)
  br i1 %call, label %if.end5, label %if.then4

if.then4:                                         ; preds = %if.end
  br label %return

if.end5:                                          ; preds = %if.end
  %6 = load i8, ptr %ch.addr, align 1
  %buffer_6 = getelementptr inbounds %"class.url::CanonOutputT", ptr %this1, i32 0, i32 1
  %7 = load ptr, ptr %buffer_6, align 8
  %cur_len_7 = getelementptr inbounds %"class.url::CanonOutputT", ptr %this1, i32 0, i32 3
  %8 = load i32, ptr %cur_len_7, align 4
  %idxprom8 = sext i32 %8 to i64
  %arrayidx9 = getelementptr inbounds i8, ptr %7, i64 %idxprom8
  store i8 %6, ptr %arrayidx9, align 1
  %cur_len_10 = getelementptr inbounds %"class.url::CanonOutputT", ptr %this1, i32 0, i32 3
  %9 = load i32, ptr %cur_len_10, align 4
  %inc11 = add nsw i32 %9, 1
  store i32 %inc11, ptr %cur_len_10, align 4
  br label %return

return:                                           ; preds = %if.end5, %if.then4, %if.then
  ret void
}

; Function Attrs: mustprogress nounwind uwtable
define linkonce_odr dso_local noundef zeroext i1 @_ZNK3url9Component8is_validEv(ptr noundef nonnull align 4 dereferenceable(8) %this) #1 comdat align 2 {
entry:
  %this.addr = alloca ptr, align 8
  store ptr %this, ptr %this.addr, align 8
  %this1 = load ptr, ptr %this.addr, align 8
  %len = getelementptr inbounds %"struct.url::Component", ptr %this1, i32 0, i32 1
  %0 = load i32, ptr %len, align 4
  %cmp = icmp ne i32 %0, -1
  ret i1 %cmp
}

; Function Attrs: mustprogress uwtable
define internal noundef zeroext i1 @_ZN3url12_GLOBAL__N_127DoCanonicalizePathComponentIttEEbPKT_RKNS_9ComponentEcPNS_12CanonOutputTIcEEPS5_(ptr noundef %source, ptr noundef nonnull align 4 dereferenceable(8) %component, i8 noundef signext %separator, ptr noundef %output, ptr noundef %new_component) #0 {
entry:
  %source.addr = alloca ptr, align 8
  %component.addr = alloca ptr, align 8
  %separator.addr = alloca i8, align 1
  %output.addr = alloca ptr, align 8
  %new_component.addr = alloca ptr, align 8
  %success = alloca i8, align 1
  %end = alloca i32, align 4
  %i = alloca i32, align 4
  %uch = alloca i16, align 2
  store ptr %source, ptr %source.addr, align 8
  store ptr %component, ptr %component.addr, align 8
  store i8 %separator, ptr %separator.addr, align 1
  store ptr %output, ptr %output.addr, align 8
  store ptr %new_component, ptr %new_component.addr, align 8
  store i8 1, ptr %success, align 1
  %0 = load ptr, ptr %component.addr, align 8
  %call = call noundef zeroext i1 @_ZNK3url9Component8is_validEv(ptr noundef nonnull align 4 dereferenceable(8) %0)
  br i1 %call, label %if.then, label %if.else18

if.then:                                          ; preds = %entry
  %1 = load i8, ptr %separator.addr, align 1
  %tobool = icmp ne i8 %1, 0
  br i1 %tobool, label %if.then1, label %if.end

if.then1:                                         ; preds = %if.then
  %2 = load ptr, ptr %output.addr, align 8
  %3 = load i8, ptr %separator.addr, align 1
  call void @_ZN3url12CanonOutputTIcE9push_backEc(ptr noundef nonnull align 8 dereferenceable(24) %2, i8 noundef signext %3)
  br label %if.end

if.end:                                           ; preds = %if.then1, %if.then
  %4 = load ptr, ptr %output.addr, align 8
  %call2 = call noundef i32 @_ZNK3url12CanonOutputTIcE6lengthEv(ptr noundef nonnull align 8 dereferenceable(24) %4)
  %5 = load ptr, ptr %new_component.addr, align 8
  %begin = getelementptr inbounds %"struct.url::Component", ptr %5, i32 0, i32 0
  store i32 %call2, ptr %begin, align 4
  %6 = load ptr, ptr %component.addr, align 8
  %call3 = call noundef i32 @_ZNK3url9Component3endEv(ptr noundef nonnull align 4 dereferenceable(8) %6)
  store i32 %call3, ptr %end, align 4
  %7 = load ptr, ptr %component.addr, align 8
  %begin4 = getelementptr inbounds %"struct.url::Component", ptr %7, i32 0, i32 0
  %8 = load i32, ptr %begin4, align 4
  store i32 %8, ptr %i, align 4
  br label %for.cond

for.cond:                                         ; preds = %for.inc, %if.end
  %9 = load i32, ptr %i, align 4
  %10 = load i32, ptr %end, align 4
  %cmp = icmp slt i32 %9, %10
  br i1 %cmp, label %for.body, label %for.end

for.body:                                         ; preds = %for.cond
  %11 = load ptr, ptr %source.addr, align 8
  %12 = load i32, ptr %i, align 4
  %idxprom = sext i32 %12 to i64
  %arrayidx = getelementptr inbounds i16, ptr %11, i64 %idxprom
  %13 = load i16, ptr %arrayidx, align 2
  store i16 %13, ptr %uch, align 2
  %14 = load i16, ptr %uch, align 2
  %conv = zext i16 %14 to i32
  %cmp5 = icmp slt i32 %conv, 32
  br i1 %cmp5, label %if.then8, label %lor.lhs.false

lor.lhs.false:                                    ; preds = %for.body
  %15 = load i16, ptr %uch, align 2
  %conv6 = zext i16 %15 to i32
  %cmp7 = icmp sge i32 %conv6, 128
  br i1 %cmp7, label %if.then8, label %if.else

if.then8:                                         ; preds = %lor.lhs.false, %for.body
  %16 = load ptr, ptr %source.addr, align 8
  %17 = load i32, ptr %end, align 4
  %18 = load ptr, ptr %output.addr, align 8
  %call9 = call noundef zeroext i1 @_ZN3url21AppendUTF8EscapedCharEPKtPiiPNS_12CanonOutputTIcEE(ptr noundef %16, ptr noundef %i, i32 noundef %17, ptr noundef %18)
  %conv10 = zext i1 %call9 to i32
  %19 = load i8, ptr %success, align 1
  %tobool11 = trunc i8 %19 to i1
  %conv12 = zext i1 %tobool11 to i32
  %and = and i32 %conv12, %conv10
  %tobool13 = icmp ne i32 %and, 0
  %frombool = zext i1 %tobool13 to i8
  store i8 %frombool, ptr %success, align 1
  br label %if.end15

if.else:                                          ; preds = %lor.lhs.false
  %20 = load ptr, ptr %output.addr, align 8
  %21 = load i16, ptr %uch, align 2
  %conv14 = trunc i16 %21 to i8
  call void @_ZN3url12CanonOutputTIcE9push_backEc(ptr noundef nonnull align 8 dereferenceable(24) %20, i8 noundef signext %conv14)
  br label %if.end15

if.end15:                                         ; preds = %if.else, %if.then8
  br label %for.inc

for.inc:                                          ; preds = %if.end15
  %22 = load i32, ptr %i, align 4
  %inc = add nsw i32 %22, 1
  store i32 %inc, ptr %i, align 4
  br label %for.cond, !llvm.loop !8

for.end:                                          ; preds = %for.cond
  %23 = load ptr, ptr %output.addr, align 8
  %call16 = call noundef i32 @_ZNK3url12CanonOutputTIcE6lengthEv(ptr noundef nonnull align 8 dereferenceable(24) %23)
  %24 = load ptr, ptr %new_component.addr, align 8
  %begin17 = getelementptr inbounds %"struct.url::Component", ptr %24, i32 0, i32 0
  %25 = load i32, ptr %begin17, align 4
  %sub = sub nsw i32 %call16, %25
  %26 = load ptr, ptr %new_component.addr, align 8
  %len = getelementptr inbounds %"struct.url::Component", ptr %26, i32 0, i32 1
  store i32 %sub, ptr %len, align 4
  br label %if.end19

if.else18:                                        ; preds = %entry
  %27 = load ptr, ptr %new_component.addr, align 8
  call void @_ZN3url9Component5resetEv(ptr noundef nonnull align 4 dereferenceable(8) %27)
  br label %if.end19

if.end19:                                         ; preds = %if.else18, %for.end
  %28 = load i8, ptr %success, align 1
  %tobool20 = trunc i8 %28 to i1
  ret i1 %tobool20
}