; Function Attrs: mustprogress uwtable
define internal fastcc noundef zeroext i1 @_ZN3url12_GLOBAL__N_127DoCanonicalizePathComponentIttEEbPKT_RKNS_9ComponentEcPNS_12CanonOutputTIcEEPS5_(ptr noundef %source, ptr nocapture noundef nonnull readonly align 4 dereferenceable(8) %component, i8 noundef signext %separator, ptr noundef %output, ptr nocapture noundef %new_component) unnamed_addr #0 {
entry:
  %char_value.i = alloca i32, align 4
  %i = alloca i32, align 4
  %len.i = getelementptr inbounds i8, ptr %component, i64 4
  %0 = load i32, ptr %len.i, align 4
  %cmp.i.not = icmp eq i32 %0, -1
  br i1 %cmp.i.not, label %if.else18, label %if.then

if.then:                                          ; preds = %entry
  %tobool.not = icmp eq i8 %separator, 0
  %cur_len_.i18.phi.trans.insert = getelementptr inbounds i8, ptr %output, i64 20
  %.pre = load i32, ptr %cur_len_.i18.phi.trans.insert, align 4
  br i1 %tobool.not, label %if.end, label %if.then1

if.then1:                                         ; preds = %if.then
  %buffer_len_.i = getelementptr inbounds i8, ptr %output, i64 16
  %1 = load i32, ptr %buffer_len_.i, align 8
  %cmp.i17 = icmp slt i32 %.pre, %1
  br i1 %cmp.i17, label %return.sink.split.i, label %if.end.i

if.end.i:                                         ; preds = %if.then1
  %cmp.i.i = icmp eq i32 %1, 0
  %spec.select = select i1 %cmp.i.i, i32 16, i32 %1
  br label %do.body.i.i

do.body.i.i:                                      ; preds = %if.end.i, %if.end.i.i
  %new_len.0.i.i = phi i32 [ %mul.i.i, %if.end.i.i ], [ %spec.select, %if.end.i ]
  %cmp3.i.i = icmp slt i32 %new_len.0.i.i, 1073741824
  br i1 %cmp3.i.i, label %if.end.i.i, label %if.end

if.end.i.i:                                       ; preds = %do.body.i.i
  %mul.i.i = shl nsw i32 %new_len.0.i.i, 1
  %cmp5.i.not.i = icmp sgt i32 %mul.i.i, %1
  br i1 %cmp5.i.not.i, label %if.end5.i, label %do.body.i.i, !llvm.loop !5

if.end5.i:                                        ; preds = %if.end.i.i
  %vtable.i.i = load ptr, ptr %output, align 8
  %vfn.i.i = getelementptr inbounds i8, ptr %vtable.i.i, i64 16
  %2 = load ptr, ptr %vfn.i.i, align 8
  tail call void %2(ptr noundef nonnull align 8 dereferenceable(24) %output, i32 noundef %mul.i.i)
  %3 = load i32, ptr %cur_len_.i18.phi.trans.insert, align 4
  br label %return.sink.split.i

return.sink.split.i:                              ; preds = %if.then1, %if.end5.i
  %.sink2.i = phi i32 [ %3, %if.end5.i ], [ %.pre, %if.then1 ]
  %.sink.in.i = getelementptr inbounds i8, ptr %output, i64 8
  %.sink.i = load ptr, ptr %.sink.in.i, align 8
  %idxprom8.i = sext i32 %.sink2.i to i64
  %arrayidx9.i = getelementptr inbounds i8, ptr %.sink.i, i64 %idxprom8.i
  store i8 %separator, ptr %arrayidx9.i, align 1
  %4 = load i32, ptr %cur_len_.i18.phi.trans.insert, align 4
  %inc11.i = add nsw i32 %4, 1
  store i32 %inc11.i, ptr %cur_len_.i18.phi.trans.insert, align 4
  br label %if.end

if.end:                                           ; preds = %do.body.i.i, %if.then, %return.sink.split.i
  %5 = phi i32 [ %inc11.i, %return.sink.split.i ], [ %.pre, %if.then ], [ %.pre, %do.body.i.i ]
  %cur_len_.i18 = getelementptr inbounds i8, ptr %output, i64 20
  store i32 %5, ptr %new_component, align 4
  %6 = load i32, ptr %component, align 4
  %7 = load i32, ptr %len.i, align 4
  %add.i = add nsw i32 %7, %6
  store i32 %6, ptr %i, align 4
  %cmp48 = icmp sgt i32 %7, 0
  br i1 %cmp48, label %for.body.lr.ph, label %for.end

for.body.lr.ph:                                   ; preds = %if.end
  %buffer_len_.i21 = getelementptr inbounds i8, ptr %output, i64 16
  %.sink.in.i37 = getelementptr inbounds i8, ptr %output, i64 8
  br label %for.body

for.body:                                         ; preds = %for.body.lr.ph, %for.inc
  %success.050 = phi i8 [ 1, %for.body.lr.ph ], [ %success.1, %for.inc ]
  %storemerge49 = phi i32 [ %6, %for.body.lr.ph ], [ %inc, %for.inc ]
  %idxprom = sext i32 %storemerge49 to i64
  %arrayidx = getelementptr inbounds i16, ptr %source, i64 %idxprom
  %8 = load i16, ptr %arrayidx, align 2
  %9 = add i16 %8, -128
  %or.cond = icmp ult i16 %9, -96
  br i1 %or.cond, label %if.then8, label %if.else

if.then8:                                         ; preds = %for.body
  call void @llvm.lifetime.start.p0(i64 4, ptr nonnull %char_value.i)
  %call.i = call noundef zeroext i1 @_ZN3url11ReadUTFCharEPKtPiiPj(ptr noundef nonnull %source, ptr noundef nonnull %i, i32 noundef %add.i, ptr noundef nonnull %char_value.i)
  %10 = load i32, ptr %char_value.i, align 4
  call void @_ZN3url12DoAppendUTF8INS_12CanonOutputTIcEETnPFvhPT_EXadL_ZNS_17AppendEscapedCharIhcEEvS3_PNS1_IT0_EEEEEEvjS4_(i32 noundef %10, ptr noundef %output)
  call void @llvm.lifetime.end.p0(i64 4, ptr nonnull %char_value.i)
  %11 = and i8 %success.050, 1
  %tobool1316 = icmp ne i8 %11, 0
  %tobool13 = select i1 %call.i, i1 %tobool1316, i1 false
  %frombool = zext i1 %tobool13 to i8
  br label %for.inc

if.else:                                          ; preds = %for.body
  %conv14 = trunc i16 %8 to i8
  %12 = load i32, ptr %cur_len_.i18, align 4
  %13 = load i32, ptr %buffer_len_.i21, align 8
  %cmp.i22 = icmp slt i32 %12, %13
  br i1 %cmp.i22, label %return.sink.split.i35, label %if.end.i23

if.end.i23:                                       ; preds = %if.else
  %cmp.i.i24 = icmp eq i32 %13, 0
  %spec.select53 = select i1 %cmp.i.i24, i32 16, i32 %13
  br label %do.body.i.i26

do.body.i.i26:                                    ; preds = %if.end.i23, %if.end.i.i29
  %new_len.0.i.i27 = phi i32 [ %mul.i.i30, %if.end.i.i29 ], [ %spec.select53, %if.end.i23 ]
  %cmp3.i.i28 = icmp slt i32 %new_len.0.i.i27, 1073741824
  br i1 %cmp3.i.i28, label %if.end.i.i29, label %for.inc

if.end.i.i29:                                     ; preds = %do.body.i.i26
  %mul.i.i30 = shl nsw i32 %new_len.0.i.i27, 1
  %cmp5.i.not.i31 = icmp sgt i32 %mul.i.i30, %13
  br i1 %cmp5.i.not.i31, label %if.end5.i32, label %do.body.i.i26, !llvm.loop !5

if.end5.i32:                                      ; preds = %if.end.i.i29
  %vtable.i.i33 = load ptr, ptr %output, align 8
  %vfn.i.i34 = getelementptr inbounds i8, ptr %vtable.i.i33, i64 16
  %14 = load ptr, ptr %vfn.i.i34, align 8
  call void %14(ptr noundef nonnull align 8 dereferenceable(24) %output, i32 noundef %mul.i.i30)
  %15 = load i32, ptr %cur_len_.i18, align 4
  br label %return.sink.split.i35

return.sink.split.i35:                            ; preds = %if.else, %if.end5.i32
  %.sink2.i36 = phi i32 [ %15, %if.end5.i32 ], [ %12, %if.else ]
  %.sink.i38 = load ptr, ptr %.sink.in.i37, align 8
  %idxprom8.i39 = sext i32 %.sink2.i36 to i64
  %arrayidx9.i40 = getelementptr inbounds i8, ptr %.sink.i38, i64 %idxprom8.i39
  store i8 %conv14, ptr %arrayidx9.i40, align 1
  %16 = load i32, ptr %cur_len_.i18, align 4
  %inc11.i41 = add nsw i32 %16, 1
  store i32 %inc11.i41, ptr %cur_len_.i18, align 4
  br label %for.inc

for.inc:                                          ; preds = %do.body.i.i26, %return.sink.split.i35, %if.then8
  %success.1 = phi i8 [ %frombool, %if.then8 ], [ %success.050, %return.sink.split.i35 ], [ %success.050, %do.body.i.i26 ]
  %17 = load i32, ptr %i, align 4
  %inc = add nsw i32 %17, 1
  store i32 %inc, ptr %i, align 4
  %cmp = icmp slt i32 %inc, %add.i
  br i1 %cmp, label %for.body, label %for.end.loopexit, !llvm.loop !8

for.end.loopexit:                                 ; preds = %for.inc
  %.pre51 = load i32, ptr %new_component, align 4
  %18 = and i8 %success.1, 1
  %19 = icmp ne i8 %18, 0
  br label %for.end

for.end:                                          ; preds = %for.end.loopexit, %if.end
  %20 = phi i32 [ %5, %if.end ], [ %.pre51, %for.end.loopexit ]
  %success.0.lcssa = phi i1 [ true, %if.end ], [ %19, %for.end.loopexit ]
  %21 = load i32, ptr %cur_len_.i18, align 4
  %sub = sub nsw i32 %21, %20
  br label %if.end19

if.else18:                                        ; preds = %entry
  store i32 0, ptr %new_component, align 4
  br label %if.end19

if.end19:                                         ; preds = %if.else18, %for.end
  %.sink = phi i32 [ -1, %if.else18 ], [ %sub, %for.end ]
  %success.2 = phi i1 [ true, %if.else18 ], [ %success.0.lcssa, %for.end ]
  %len.i45 = getelementptr inbounds i8, ptr %new_component, i64 4
  store i32 %.sink, ptr %len.i45, align 4
  ret i1 %success.2
}